target datalayout = "e-m:e-p270:32:32-p271:32:32-p272:64:64-i64:64-i128:128-f80:128-n8:16:32:64-S128"
target triple = "x86_64-pc-linux-gnu"

%struct.KVMRouteChange = type { ptr, i32 }
%struct.MemoryRegion = type { %struct.Object, i8, i8, i8, i8, i8, i8, i8, i8, i8, i8, ptr, ptr, ptr, ptr, ptr, ptr, i32, i128, i64, ptr, i64, i8, i8, i8, i8, ptr, i64, i32, %union.anon, %union.anon.0, %union.anon.1, ptr, i32, ptr, ptr, i8 }
%struct.Object = type { ptr, ptr, ptr, i32, ptr }
%union.anon = type { %struct.QTailQLink }
%struct.QTailQLink = type { ptr, ptr }
%union.anon.0 = type { %struct.QTailQLink }
%union.anon.1 = type { %struct.QTailQLink }
%struct.VFIOPCIDevice = type { %struct.PCIDevice, %struct.VFIODevice, %struct.VFIOINTx, i32, ptr, i64, i32, i64, ptr, i32, ptr, ptr, i32, i32, [6 x %struct.VFIOBAR], ptr, ptr, %struct.PCIHostDeviceAddress, %struct.QemuUUID, %struct.EventNotifier, %struct.EventNotifier, ptr, i32, i32, i32, i32, i32, i32, i32, i32, i32, i32, i32, i8, i8, i8, i8, i8, i8, i8, i8, i8, i8, i8, i8, i8, i8, i32, i8, i8, i8, ptr, %struct.Notifier }
%struct.PCIDevice = type { %struct.DeviceState, i8, i8, ptr, ptr, ptr, ptr, ptr, i32, %struct.PCIReqIDCache, [64 x i8], [7 x %struct.PCIIORegion], %struct.AddressSpace, %struct.MemoryRegion, %struct.MemoryRegion, ptr, ptr, [3 x ptr], i8, i8, i32, i8, i32, ptr, ptr, ptr, ptr, ptr, ptr, %struct.MemoryRegion, %struct.MemoryRegion, %struct.MemoryRegion, ptr, i8, i32, i8, %struct.PCIExpressDevice, ptr, ptr, i32, i8, %struct.MemoryRegion, i32, ptr, ptr, ptr, ptr, i16, %struct.DOECap, ptr, i32, i32 }
%struct.DeviceState = type { %struct.Object, ptr, ptr, i8, i8, i64, i32, i8, ptr, %struct.NamedGPIOListHead, %struct.NamedClockListHead, %struct.BusStateHead, i32, i32, i32, %struct.ResettableState, ptr, %struct.MemReentrancyGuard }
%struct.NamedGPIOListHead = type { ptr }
%struct.NamedClockListHead = type { ptr }
%struct.BusStateHead = type { ptr }
%struct.ResettableState = type { i32, i8, i8 }
%struct.MemReentrancyGuard = type { i8 }
%struct.PCIReqIDCache = type { ptr, i32 }
%struct.PCIIORegion = type { i64, i64, i8, ptr, ptr }
%struct.AddressSpace = type { %struct.rcu_head, ptr, ptr, ptr, i32, i32, ptr, %union.anon.4, %union.anon.5, i64, i64, %struct.QemuMutex, %struct.anon.6 }
%struct.rcu_head = type { ptr, ptr }
%union.anon.4 = type { %struct.QTailQLink }
%union.anon.5 = type { %struct.QTailQLink }
%struct.QemuMutex = type { %union.pthread_mutex_t, i8 }
%union.pthread_mutex_t = type { %struct.__pthread_mutex_s }
%struct.__pthread_mutex_s = type { i32, i32, i32, i32, i32, i16, i16, %struct.__pthread_internal_list }
%struct.__pthread_internal_list = type { ptr, ptr }
%struct.anon.6 = type { ptr }
%struct.PCIExpressDevice = type { i8, i8, i8, i16, %struct.PCIEAERLog, i16, i16, i16, %struct.PCIESriovPF, %struct.PCIESriovVF }
%struct.PCIEAERLog = type { i16, i16, ptr }
%struct.PCIESriovPF = type { i16, [7 x i8], ptr, ptr }
%struct.PCIESriovVF = type { ptr, i16 }
%struct.DOECap = type { ptr, i16, %struct.anon.7, %struct.anon.8, %struct.anon.9, ptr, ptr, i32, i32, i32, ptr, i16, i32 }
%struct.anon.7 = type { i8, i16 }
%struct.anon.8 = type { i8, i8, i8 }
%struct.anon.9 = type { i8, i8, i8, i8 }
%struct.VFIODevice = type { %struct.anon.10, %struct.anon.11, %struct.anon.12, ptr, ptr, ptr, ptr, ptr, i32, i32, i8, i8, i8, i8, i8, i32, i8, ptr, i32, i32, i32, ptr, ptr, i32, i32, i8, i8, i8, ptr, i32, ptr, ptr, %struct.anon.13 }
%struct.anon.10 = type { ptr, ptr }
%struct.anon.11 = type { ptr, ptr }
%struct.anon.12 = type { ptr, ptr }
%struct.anon.13 = type { ptr, ptr }
%struct.VFIOINTx = type { i8, i8, i8, %struct.EventNotifier, %struct.EventNotifier, %struct.PCIINTxRoute, i32, ptr }
%struct.PCIINTxRoute = type { i32, i32 }
%struct.VFIOBAR = type { %struct.VFIORegion, ptr, i64, i8, i8, i8, %struct.anon.14 }
%struct.VFIORegion = type { ptr, i64, ptr, i64, i32, i32, ptr, i8 }
%struct.anon.14 = type { ptr }
%struct.PCIHostDeviceAddress = type { i32, i32, i32, i32 }
%struct.QemuUUID = type { %union.anon.15 }
%union.anon.15 = type { %struct.anon.16 }
%struct.anon.16 = type { i32, i16, i16, i8, i8, [6 x i8] }
%struct.EventNotifier = type { i32, i32, i8 }
%struct.Notifier = type { ptr, %struct.anon.17 }
%struct.anon.17 = type { ptr, ptr }
%struct.VFIOMSIXInfo = type { i8, i8, i16, i32, i32, ptr, i8 }
%struct.timeval = type { i64, i64 }
%struct.vfio_irq_set = type { i32, i32, i32, i32, i32, [0 x i8] }

@.str.11 = private unnamed_addr constant [22 x i8] c"../qemu/hw/vfio/pci.c\00", align 1
@trace_events_enabled_count = external global i32, align 4
@message_with_timestamp = external global i8, align 1
@qemu_loglevel = external global i32, align 4
@.str.33 = private unnamed_addr constant [29 x i8] c"!vdev->defer_kvm_irq_routing\00", align 1
@__PRETTY_FUNCTION__.vfio_prepare_kvm_msi_virq_batch = private unnamed_addr constant [54 x i8] c"void vfio_prepare_kvm_msi_virq_batch(VFIOPCIDevice *)\00", align 1
@vfio_route_change = internal global %struct.KVMRouteChange zeroinitializer, align 8
@kvm_state = external global ptr, align 8
@.str.43 = private unnamed_addr constant [39 x i8] c"vfio: msix_set_vector_notifiers failed\00", align 1
@.str.44 = private unnamed_addr constant [35 x i8] c"vfio: failed to enable vectors, %d\00", align 1
@.str.45 = private unnamed_addr constant [33 x i8] c"vfio: failed to enable MSI-X, %d\00", align 1
@_TRACE_VFIO_MSIX_ENABLE_DSTATE = external global i16, align 2
@.str.52 = private unnamed_addr constant [37 x i8] c"%d@%zu.%06zu:vfio_msix_enable  (%s)\0A\00", align 1
@.str.53 = private unnamed_addr constant [24 x i8] c"vfio_msix_enable  (%s)\0A\00", align 1

; Function Attrs: inlinehint nounwind sspstrong uwtable
define internal zeroext i1 @qemu_loglevel_mask(i32 noundef %0) #3 {
  %2 = alloca i32, align 4
  store i32 %0, ptr %2, align 4
  %3 = load i32, ptr @qemu_loglevel, align 4
  %4 = load i32, ptr %2, align 4
  %5 = and i32 %3, %4
  %6 = icmp ne i32 %5, 0
  ret i1 %6
}

; Function Attrs: inlinehint nounwind sspstrong uwtable
define internal void @_nocheck__trace_vfio_msix_enable(ptr noundef %0) #3 {
  %2 = alloca ptr, align 8
  %3 = alloca %struct.timeval, align 8
  store ptr %0, ptr %2, align 8
  %4 = load i32, ptr @trace_events_enabled_count, align 4
  %5 = icmp ne i32 %4, 0
  %6 = xor i1 %5, true
  %7 = xor i1 %6, true
  %8 = zext i1 %7 to i32
  %9 = sext i32 %8 to i64
  %10 = call i64 @llvm.expect.i64(i64 %9, i64 0)
  %11 = icmp ne i64 %10, 0
  br i1 %11, label %12, label %32

12:                                               ; preds = %1
  %13 = load i16, ptr @_TRACE_VFIO_MSIX_ENABLE_DSTATE, align 2
  %14 = zext i16 %13 to i32
  %15 = icmp ne i32 %14, 0
  br i1 %15, label %16, label %32

16:                                               ; preds = %12
  %17 = call zeroext i1 @qemu_loglevel_mask(i32 noundef 32768)
  br i1 %17, label %18, label %32

18:                                               ; preds = %16
  %19 = load i8, ptr @message_with_timestamp, align 1, !range !9, !noundef !10
  %20 = trunc i8 %19 to i1
  br i1 %20, label %21, label %29

21:                                               ; preds = %18
  call void @llvm.lifetime.start.p0(i64 16, ptr %3) #19
  call void @llvm.memset.p0.i64(ptr align 8 %3, i8 0, i64 16, i1 false), !annotation !4
  %22 = call i32 @gettimeofday(ptr noundef %3, ptr noundef null) #19
  %23 = call i32 @qemu_get_thread_id()
  %24 = getelementptr inbounds nuw %struct.timeval, ptr %3, i32 0, i32 0
  %25 = load i64, ptr %24, align 8
  %26 = getelementptr inbounds nuw %struct.timeval, ptr %3, i32 0, i32 1
  %27 = load i64, ptr %26, align 8
  %28 = load ptr, ptr %2, align 8
  call void (ptr, ...) @qemu_log(ptr noundef @.str.52, i32 noundef %23, i64 noundef %25, i64 noundef %27, ptr noundef %28)
  call void @llvm.lifetime.end.p0(i64 16, ptr %3) #19
  br label %31

29:                                               ; preds = %18
  %30 = load ptr, ptr %2, align 8
  call void (ptr, ...) @qemu_log(ptr noundef @.str.53, ptr noundef %30)
  br label %31

31:                                               ; preds = %29, %21
  br label %32

32:                                               ; preds = %31, %16, %12, %1
  ret void
}

; Function Attrs: inlinehint nounwind sspstrong uwtable
define internal void @g_autoptr_cleanup_generic_gfree(ptr noundef %0) #3 {
  %2 = alloca ptr, align 8
  %3 = alloca ptr, align 8
  store ptr %0, ptr %2, align 8
  call void @llvm.lifetime.start.p0(i64 8, ptr %3) #19
  %4 = load ptr, ptr %2, align 8
  store ptr %4, ptr %3, align 8
  %5 = load ptr, ptr %3, align 8
  %6 = load ptr, ptr %5, align 8
  call void @g_free(ptr noundef %6)
  call void @llvm.lifetime.end.p0(i64 8, ptr %3) #19
  ret void
}

; Function Attrs: inlinehint nounwind sspstrong uwtable
define internal { ptr, i32 } @kvm_irqchip_begin_route_changes(ptr noundef %0) #3 {
  %2 = alloca %struct.KVMRouteChange, align 8
  %3 = alloca ptr, align 8
  store ptr %0, ptr %3, align 8
  %4 = getelementptr inbounds nuw %struct.KVMRouteChange, ptr %2, i32 0, i32 0
  %5 = load ptr, ptr %3, align 8
  store ptr %5, ptr %4, align 8
  %6 = getelementptr inbounds nuw %struct.KVMRouteChange, ptr %2, i32 0, i32 1
  store i32 0, ptr %6, align 8
  %7 = getelementptr i8, ptr %2, i64 12
  call void @llvm.memset.p0.i64(ptr align 4 %7, i8 0, i64 4, i1 false)
  %8 = load { ptr, i32 }, ptr %2, align 8
  ret { ptr, i32 } %8
}

; Function Attrs: inlinehint nounwind sspstrong uwtable
define internal void @trace_vfio_msix_enable(ptr noundef %0) #3 {
  %2 = alloca ptr, align 8
  store ptr %0, ptr %2, align 8
  %3 = load ptr, ptr %2, align 8
  call void @_nocheck__trace_vfio_msix_enable(ptr noundef %3)
  ret void
}

; Function Attrs: nounwind sspstrong uwtable
define internal i32 @vfio_enable_msix_no_vec(ptr noundef %0) #0 {
  %2 = alloca ptr, align 8
  %3 = alloca ptr, align 8
  %4 = alloca i32, align 4
  %5 = alloca i32, align 4
  %6 = alloca ptr, align 8
  store ptr %0, ptr %2, align 8
  call void @llvm.lifetime.start.p0(i64 8, ptr %3) #19
  store ptr null, ptr %3, align 8
  call void @llvm.lifetime.start.p0(i64 4, ptr %4) #19
  store i32 0, ptr %4, align 4
  call void @llvm.lifetime.start.p0(i64 4, ptr %5) #19
  store i32 0, ptr %5, align 4, !annotation !4
  call void @llvm.lifetime.start.p0(i64 8, ptr %6) #19
  store ptr null, ptr %6, align 8, !annotation !4
  store i32 24, ptr %5, align 4
  %7 = load i32, ptr %5, align 4
  %8 = sext i32 %7 to i64
  %9 = call noalias ptr @g_malloc0(i64 noundef %8) #22
  store ptr %9, ptr %3, align 8
  %10 = load i32, ptr %5, align 4
  %11 = load ptr, ptr %3, align 8
  %12 = getelementptr inbounds nuw %struct.vfio_irq_set, ptr %11, i32 0, i32 0
  store i32 %10, ptr %12, align 4
  %13 = load ptr, ptr %3, align 8
  %14 = getelementptr inbounds nuw %struct.vfio_irq_set, ptr %13, i32 0, i32 1
  store i32 36, ptr %14, align 4
  %15 = load ptr, ptr %3, align 8
  %16 = getelementptr inbounds nuw %struct.vfio_irq_set, ptr %15, i32 0, i32 2
  store i32 2, ptr %16, align 4
  %17 = load ptr, ptr %3, align 8
  %18 = getelementptr inbounds nuw %struct.vfio_irq_set, ptr %17, i32 0, i32 3
  store i32 0, ptr %18, align 4
  %19 = load ptr, ptr %3, align 8
  %20 = getelementptr inbounds nuw %struct.vfio_irq_set, ptr %19, i32 0, i32 4
  store i32 1, ptr %20, align 4
  %21 = load ptr, ptr %3, align 8
  %22 = getelementptr inbounds nuw %struct.vfio_irq_set, ptr %21, i32 0, i32 5
  store ptr %22, ptr %6, align 8
  %23 = load ptr, ptr %6, align 8
  store i32 -1, ptr %23, align 4
  %24 = load ptr, ptr %2, align 8
  %25 = getelementptr inbounds nuw %struct.VFIOPCIDevice, ptr %24, i32 0, i32 1
  %26 = getelementptr inbounds nuw %struct.VFIODevice, ptr %25, i32 0, i32 8
  %27 = load i32, ptr %26, align 8
  %28 = load ptr, ptr %3, align 8
  %29 = call i32 (i32, i64, ...) @ioctl(i32 noundef %27, i64 noundef 15214, ptr noundef %28) #19
  store i32 %29, ptr %4, align 4
  %30 = load i32, ptr %4, align 4
  call void @llvm.lifetime.end.p0(i64 8, ptr %6) #19
  call void @llvm.lifetime.end.p0(i64 4, ptr %5) #19
  call void @llvm.lifetime.end.p0(i64 4, ptr %4) #19
  call void @g_autoptr_cleanup_generic_gfree(ptr noundef %3)
  call void @llvm.lifetime.end.p0(i64 8, ptr %3) #19
  ret i32 %30
}

; Function Attrs: nounwind sspstrong uwtable
define internal void @vfio_prepare_kvm_msi_virq_batch(ptr noundef %0) #0 {
  %2 = alloca ptr, align 8
  %3 = alloca %struct.KVMRouteChange, align 8
  store ptr %0, ptr %2, align 8
  %4 = load ptr, ptr %2, align 8
  %5 = getelementptr inbounds nuw %struct.VFIOPCIDevice, ptr %4, i32 0, i32 48
  %6 = load i8, ptr %5, align 8, !range !9, !noundef !10
  %7 = trunc i8 %6 to i1
  br i1 %7, label %9, label %8

8:                                                ; preds = %1
  br label %10

9:                                                ; preds = %1
  call void @__assert_fail(ptr noundef @.str.33, ptr noundef @.str.11, i32 noundef 649, ptr noundef @__PRETTY_FUNCTION__.vfio_prepare_kvm_msi_virq_batch) #25
  unreachable

10:                                               ; preds = %8
  %11 = load ptr, ptr %2, align 8
  %12 = getelementptr inbounds nuw %struct.VFIOPCIDevice, ptr %11, i32 0, i32 48
  store i8 1, ptr %12, align 8
  call void @llvm.lifetime.start.p0(i64 16, ptr %3) #19
  %13 = load ptr, ptr @kvm_state, align 8
  %14 = call { ptr, i32 } @kvm_irqchip_begin_route_changes(ptr noundef %13)
  %15 = getelementptr inbounds nuw { ptr, i32 }, ptr %3, i32 0, i32 0
  %16 = extractvalue { ptr, i32 } %14, 0
  store ptr %16, ptr %15, align 8
  %17 = getelementptr inbounds nuw { ptr, i32 }, ptr %3, i32 0, i32 1
  %18 = extractvalue { ptr, i32 } %14, 1
  store i32 %18, ptr %17, align 8
  call void @llvm.memcpy.p0.p0.i64(ptr align 8 @vfio_route_change, ptr align 8 %3, i64 16, i1 false)
  call void @llvm.lifetime.end.p0(i64 16, ptr %3) #19
  ret void
}

; Function Attrs: nounwind sspstrong uwtable
define internal void @vfio_msix_enable(ptr noundef %0) #0 {
  %2 = alloca ptr, align 8
  %3 = alloca i32, align 4
  %4 = alloca i64, align 8
  %5 = alloca i64, align 8
  %6 = alloca ptr, align 8
  %7 = alloca ptr, align 8
  store ptr %0, ptr %2, align 8
  call void @llvm.lifetime.start.p0(i64 4, ptr %3) #19
  store i32 0, ptr %3, align 4, !annotation !4
  %8 = load ptr, ptr %2, align 8
  call void @vfio_disable_interrupts(ptr noundef %8)
  call void @llvm.lifetime.start.p0(i64 8, ptr %4) #19
  %9 = load ptr, ptr %2, align 8
  %10 = getelementptr inbounds nuw %struct.VFIOPCIDevice, ptr %9, i32 0, i32 11
  %11 = load ptr, ptr %10, align 8
  %12 = getelementptr inbounds nuw %struct.VFIOMSIXInfo, ptr %11, i32 0, i32 2
  %13 = load i16, ptr %12, align 2
  %14 = zext i16 %13 to i64
  store i64 %14, ptr %4, align 8
  call void @llvm.lifetime.start.p0(i64 8, ptr %5) #19
  store i64 40, ptr %5, align 8
  call void @llvm.lifetime.start.p0(i64 8, ptr %6) #19
  store ptr null, ptr %6, align 8, !annotation !4
  %15 = load i64, ptr %5, align 8
  %16 = icmp eq i64 %15, 1
  br i1 %16, label %17, label %20

17:                                               ; preds = %1
  %18 = load i64, ptr %4, align 8
  %19 = call noalias ptr @g_malloc0(i64 noundef %18) #22
  store ptr %19, ptr %6, align 8
  br label %41

20:                                               ; preds = %1
  %21 = load i64, ptr %4, align 8
  %22 = call i1 @llvm.is.constant.i64(i64 %21)
  br i1 %22, label %23, label %36

23:                                               ; preds = %20
  %24 = load i64, ptr %5, align 8
  %25 = icmp eq i64 %24, 0
  br i1 %25, label %31, label %26

26:                                               ; preds = %23
  %27 = load i64, ptr %4, align 8
  %28 = load i64, ptr %5, align 8
  %29 = udiv i64 -1, %28
  %30 = icmp ule i64 %27, %29
  br i1 %30, label %31, label %36

31:                                               ; preds = %26, %23
  %32 = load i64, ptr %4, align 8
  %33 = load i64, ptr %5, align 8
  %34 = mul i64 %32, %33
  %35 = call noalias ptr @g_malloc0(i64 noundef %34) #22
  store ptr %35, ptr %6, align 8
  br label %40

36:                                               ; preds = %26, %20
  %37 = load i64, ptr %4, align 8
  %38 = load i64, ptr %5, align 8
  %39 = call noalias ptr @g_malloc0_n(i64 noundef %37, i64 noundef %38) #23
  store ptr %39, ptr %6, align 8
  br label %40

40:                                               ; preds = %36, %31
  br label %41

41:                                               ; preds = %40, %17
  %42 = load ptr, ptr %6, align 8
  store ptr %42, ptr %7, align 8
  call void @llvm.lifetime.end.p0(i64 8, ptr %6) #19
  call void @llvm.lifetime.end.p0(i64 8, ptr %5) #19
  call void @llvm.lifetime.end.p0(i64 8, ptr %4) #19
  %43 = load ptr, ptr %7, align 8
  %44 = load ptr, ptr %2, align 8
  %45 = getelementptr inbounds nuw %struct.VFIOPCIDevice, ptr %44, i32 0, i32 10
  store ptr %43, ptr %45, align 16
  %46 = load ptr, ptr %2, align 8
  %47 = getelementptr inbounds nuw %struct.VFIOPCIDevice, ptr %46, i32 0, i32 13
  store i32 3, ptr %47, align 4
  %48 = load ptr, ptr %2, align 8
  call void @vfio_prepare_kvm_msi_virq_batch(ptr noundef %48)
  %49 = load ptr, ptr %2, align 8
  %50 = getelementptr inbounds nuw %struct.VFIOPCIDevice, ptr %49, i32 0, i32 0
  %51 = call i32 @msix_set_vector_notifiers(ptr noundef %50, ptr noundef @vfio_msix_vector_use, ptr noundef @vfio_msix_vector_release, ptr noundef null)
  %52 = icmp ne i32 %51, 0
  br i1 %52, label %53, label %54

53:                                               ; preds = %41
  call void (ptr, ...) @error_report(ptr noundef @.str.43)
  br label %54

54:                                               ; preds = %53, %41
  %55 = load ptr, ptr %2, align 8
  call void @vfio_commit_kvm_msi_virq_batch(ptr noundef %55)
  %56 = load ptr, ptr %2, align 8
  %57 = getelementptr inbounds nuw %struct.VFIOPCIDevice, ptr %56, i32 0, i32 12
  %58 = load i32, ptr %57, align 16
  %59 = icmp ne i32 %58, 0
  br i1 %59, label %60, label %68

60:                                               ; preds = %54
  %61 = load ptr, ptr %2, align 8
  %62 = call i32 @vfio_enable_vectors(ptr noundef %61, i1 noundef zeroext true)
  store i32 %62, ptr %3, align 4
  %63 = load i32, ptr %3, align 4
  %64 = icmp ne i32 %63, 0
  br i1 %64, label %65, label %67

65:                                               ; preds = %60
  %66 = load i32, ptr %3, align 4
  call void (ptr, ...) @error_report(ptr noundef @.str.44, i32 noundef %66)
  br label %67

67:                                               ; preds = %65, %60
  br label %76

68:                                               ; preds = %54
  %69 = load ptr, ptr %2, align 8
  %70 = call i32 @vfio_enable_msix_no_vec(ptr noundef %69)
  store i32 %70, ptr %3, align 4
  %71 = load i32, ptr %3, align 4
  %72 = icmp ne i32 %71, 0
  br i1 %72, label %73, label %75

73:                                               ; preds = %68
  %74 = load i32, ptr %3, align 4
  call void (ptr, ...) @error_report(ptr noundef @.str.45, i32 noundef %74)
  br label %75

75:                                               ; preds = %73, %68
  br label %76

76:                                               ; preds = %75, %67
  %77 = load ptr, ptr %2, align 8
  %78 = getelementptr inbounds nuw %struct.VFIOPCIDevice, ptr %77, i32 0, i32 1
  %79 = getelementptr inbounds nuw %struct.VFIODevice, ptr %78, i32 0, i32 6
  %80 = load ptr, ptr %79, align 8
  call void @trace_vfio_msix_enable(ptr noundef %80)
  call void @llvm.lifetime.end.p0(i64 4, ptr %3) #19
  ret void
}