; Function Attrs: nounwind sspstrong uwtable
define internal fastcc void @vfio_msix_enable(ptr noundef %0) unnamed_addr #0 {
  %2 = alloca %struct.timeval, align 8
  tail call fastcc void @vfio_disable_interrupts(ptr noundef %0)
  %3 = getelementptr inbounds nuw i8, ptr %0, i64 3080
  %4 = load ptr, ptr %3, align 8
  %5 = getelementptr inbounds nuw i8, ptr %4, i64 2
  %6 = load i16, ptr %5, align 2
  %7 = zext i16 %6 to i64
  %8 = tail call noalias ptr @g_malloc0_n(i64 noundef %7, i64 noundef 40) #29
  %9 = getelementptr inbounds nuw i8, ptr %0, i64 3072
  store ptr %8, ptr %9, align 16
  %10 = getelementptr inbounds nuw i8, ptr %0, i64 3092
  store i32 3, ptr %10, align 4
  %11 = getelementptr inbounds nuw i8, ptr %0, i64 3768
  %12 = load i8, ptr %11, align 8, !range !6, !noundef !7
  %13 = trunc nuw i8 %12 to i1
  br i1 %13, label %14, label %vfio_prepare_kvm_msi_virq_batch.exit

14:                                               ; preds = %1
  tail call void @__assert_fail(ptr noundef nonnull @.str.33, ptr noundef nonnull @.str.11, i32 noundef 649, ptr noundef nonnull @__PRETTY_FUNCTION__.vfio_prepare_kvm_msi_virq_batch) #27
  unreachable

vfio_prepare_kvm_msi_virq_batch.exit:             ; preds = %1
  store i8 1, ptr %11, align 8
  %15 = load ptr, ptr @kvm_state, align 8
  store ptr %15, ptr @vfio_route_change, align 8
  store i32 0, ptr getelementptr inbounds nuw (i8, ptr @vfio_route_change, i64 8), align 8
  %16 = tail call i32 @msix_set_vector_notifiers(ptr noundef nonnull %0, ptr noundef nonnull @vfio_msix_vector_use, ptr noundef nonnull @vfio_msix_vector_release, ptr noundef null) #26
  %.not = icmp eq i32 %16, 0
  br i1 %.not, label %18, label %17

17:                                               ; preds = %vfio_prepare_kvm_msi_virq_batch.exit
  tail call void (ptr, ...) @error_report(ptr noundef nonnull @.str.43) #26
  br label %18

18:                                               ; preds = %17, %vfio_prepare_kvm_msi_virq_batch.exit
  tail call fastcc void @vfio_commit_kvm_msi_virq_batch(ptr noundef nonnull %0)
  %19 = getelementptr inbounds nuw i8, ptr %0, i64 3088
  %20 = load i32, ptr %19, align 16
  %.not28 = icmp eq i32 %20, 0
  br i1 %.not28, label %24, label %21

21:                                               ; preds = %18
  %22 = tail call fastcc i32 @vfio_enable_vectors(ptr noundef nonnull %0, i1 noundef zeroext true)
  %.not30 = icmp eq i32 %22, 0
  br i1 %.not30, label %35, label %23

23:                                               ; preds = %21
  tail call void (ptr, ...) @error_report(ptr noundef nonnull @.str.44, i32 noundef %22) #26
  br label %35

24:                                               ; preds = %18
  %25 = tail call noalias dereferenceable_or_null(24) ptr @g_malloc0(i64 noundef 24) #30
  store i32 24, ptr %25, align 4
  %26 = getelementptr inbounds nuw i8, ptr %25, i64 4
  store i32 36, ptr %26, align 4
  %27 = getelementptr inbounds nuw i8, ptr %25, i64 8
  store i32 2, ptr %27, align 4
  %28 = getelementptr inbounds nuw i8, ptr %25, i64 12
  store i32 0, ptr %28, align 4
  %29 = getelementptr inbounds nuw i8, ptr %25, i64 16
  store i32 1, ptr %29, align 4
  %30 = getelementptr inbounds nuw i8, ptr %25, i64 20
  store i32 -1, ptr %30, align 4
  %31 = getelementptr inbounds nuw i8, ptr %0, i64 2840
  %32 = load i32, ptr %31, align 8
  %33 = tail call i32 (i32, i64, ...) @ioctl(i32 noundef %32, i64 noundef 15214, ptr noundef nonnull %25) #26
  tail call void @g_free(ptr noundef nonnull %25) #26
  %.not29 = icmp eq i32 %33, 0
  br i1 %.not29, label %35, label %34

34:                                               ; preds = %24
  tail call void (ptr, ...) @error_report(ptr noundef nonnull @.str.45, i32 noundef %33) #26
  br label %35

35:                                               ; preds = %24, %34, %21, %23
  %36 = getelementptr inbounds nuw i8, ptr %0, i64 2824
  %37 = load ptr, ptr %36, align 8
  %38 = load i32, ptr @trace_events_enabled_count, align 4
  %.not.i.i = icmp eq i32 %38, 0
  br i1 %.not.i.i, label %trace_vfio_msix_enable.exit, label %39, !prof !5

39:                                               ; preds = %35
  %40 = load i16, ptr @_TRACE_VFIO_MSIX_ENABLE_DSTATE, align 2
  %.not2.i.i = icmp eq i16 %40, 0
  br i1 %.not2.i.i, label %trace_vfio_msix_enable.exit, label %41

41:                                               ; preds = %39
  %42 = load i32, ptr @qemu_loglevel, align 4
  %43 = and i32 %42, 32768
  %.not3.i.i = icmp eq i32 %43, 0
  br i1 %.not3.i.i, label %trace_vfio_msix_enable.exit, label %44

44:                                               ; preds = %41
  %45 = load i8, ptr @message_with_timestamp, align 1, !range !6, !noundef !7
  %46 = trunc nuw i8 %45 to i1
  br i1 %46, label %47, label %53

47:                                               ; preds = %44
  call void @llvm.lifetime.start.p0(i64 16, ptr nonnull %2) #26
  call void @llvm.memset.p0.i64(ptr noundef nonnull align 8 dereferenceable(16) %2, i8 0, i64 16, i1 false), !annotation !4
  %48 = call i32 @gettimeofday(ptr noundef nonnull %2, ptr noundef null) #26
  %49 = tail call i32 @qemu_get_thread_id() #26
  %50 = load i64, ptr %2, align 8
  %51 = getelementptr inbounds nuw i8, ptr %2, i64 8
  %52 = load i64, ptr %51, align 8
  tail call void (ptr, ...) @qemu_log(ptr noundef nonnull @.str.52, i32 noundef %49, i64 noundef %50, i64 noundef %52, ptr noundef %37) #26
  call void @llvm.lifetime.end.p0(i64 16, ptr nonnull %2) #26
  br label %trace_vfio_msix_enable.exit

53:                                               ; preds = %44
  tail call void (ptr, ...) @qemu_log(ptr noundef nonnull @.str.53, ptr noundef %37) #26
  br label %trace_vfio_msix_enable.exit

trace_vfio_msix_enable.exit:                      ; preds = %35, %39, %41, %47, %53
  ret void
}